target datalayout = "e-m:e-p270:32:32-p271:32:32-p272:64:64-i64:64-i128:128-f80:128-n8:16:32:64-S128"
target triple = "x86_64-pc-linux-gnu"

@.str = private unnamed_addr constant [2 x i8] c"\0A\00", align 1
@.str.217 = private unnamed_addr constant [8 x i8] c"Usage:\0A\00", align 1
@.str.218 = private unnamed_addr constant [59 x i8] c"  metaflac [options] [operations] FLACfile [FLACfile ...]\0A\00", align 1
@.str.219 = private unnamed_addr constant [80 x i8] c"Use metaflac to list, add, remove, or edit metadata in one or more FLAC files.\0A\00", align 1
@.str.220 = private unnamed_addr constant [78 x i8] c"You may perform one major operation, or many shorthand operations at a time.\0A\00", align 1
@.str.221 = private unnamed_addr constant [10 x i8] c"Options:\0A\00", align 1
@.str.222 = private unnamed_addr constant [80 x i8] c"-o, --output-name=FILENAME   Write changes to a new file, instead of doing all\0A\00", align 1
@.str.223 = private unnamed_addr constant [60 x i8] c"                             operations on the input files\0A\00", align 1
@.str.224 = private unnamed_addr constant [81 x i8] c"--preserve-modtime    Preserve the original modification time in spite of edits\0A\00", align 1
@.str.225 = private unnamed_addr constant [81 x i8] c"                      This option does nothing when combined with --output-name\0A\00", align 1
@.str.226 = private unnamed_addr constant [71 x i8] c"--with-filename       Prefix each output line with the FLAC file name\0A\00", align 1
@.str.227 = private unnamed_addr constant [78 x i8] c"                      (the default if more than one FLAC file is specified).\0A\00", align 1
@.str.228 = private unnamed_addr constant [76 x i8] c"                      This option has no effect for options exporting to a\0A\00", align 1
@.str.229 = private unnamed_addr constant [52 x i8] c"                      file, like --export-tags-to.\0A\00", align 1
@.str.230 = private unnamed_addr constant [78 x i8] c"--no-filename         Do not prefix each output line with the FLAC file name\0A\00", align 1
@.str.231 = private unnamed_addr constant [72 x i8] c"                      (the default if only one FLAC file is specified)\0A\00", align 1
@.str.232 = private unnamed_addr constant [72 x i8] c"--no-utf8-convert     Do not convert tags from UTF-8 to local charset,\0A\00", align 1
@.str.233 = private unnamed_addr constant [79 x i8] c"                      or vice versa.  This is useful for scripts, and setting\0A\00", align 1
@.str.234 = private unnamed_addr constant [69 x i8] c"                      tags in situations where the locale is wrong.\0A\00", align 1
@.str.235 = private unnamed_addr constant [79 x i8] c"--dont-use-padding    By default metaflac tries to use padding where possible\0A\00", align 1
@.str.236 = private unnamed_addr constant [79 x i8] c"                      to avoid rewriting the entire file if the metadata size\0A\00", align 1
@.str.237 = private unnamed_addr constant [78 x i8] c"                      changes.  Use this option to tell metaflac to not take\0A\00", align 1
@.str.238 = private unnamed_addr constant [54 x i8] c"                      advantage of padding this way.\0A\00", align 1

; Function Attrs: nounwind sspstrong uwtable
define internal void @usage_summary(ptr noundef %0) #0 {
  %2 = alloca ptr, align 8
  store ptr %0, ptr %2, align 8, !tbaa !9
  %3 = load ptr, ptr %2, align 8, !tbaa !9
  %4 = call i32 (ptr, i32, ptr, ...) @__fprintf_chk(ptr noundef %3, i32 noundef 1, ptr noundef @.str.217)
  %5 = load ptr, ptr %2, align 8, !tbaa !9
  %6 = call i32 (ptr, i32, ptr, ...) @__fprintf_chk(ptr noundef %5, i32 noundef 1, ptr noundef @.str.218)
  %7 = load ptr, ptr %2, align 8, !tbaa !9
  %8 = call i32 (ptr, i32, ptr, ...) @__fprintf_chk(ptr noundef %7, i32 noundef 1, ptr noundef @.str)
  %9 = load ptr, ptr %2, align 8, !tbaa !9
  %10 = call i32 (ptr, i32, ptr, ...) @__fprintf_chk(ptr noundef %9, i32 noundef 1, ptr noundef @.str.219)
  %11 = load ptr, ptr %2, align 8, !tbaa !9
  %12 = call i32 (ptr, i32, ptr, ...) @__fprintf_chk(ptr noundef %11, i32 noundef 1, ptr noundef @.str.220)
  %13 = load ptr, ptr %2, align 8, !tbaa !9
  %14 = call i32 (ptr, i32, ptr, ...) @__fprintf_chk(ptr noundef %13, i32 noundef 1, ptr noundef @.str)
  %15 = load ptr, ptr %2, align 8, !tbaa !9
  %16 = call i32 (ptr, i32, ptr, ...) @__fprintf_chk(ptr noundef %15, i32 noundef 1, ptr noundef @.str.221)
  %17 = load ptr, ptr %2, align 8, !tbaa !9
  %18 = call i32 (ptr, i32, ptr, ...) @__fprintf_chk(ptr noundef %17, i32 noundef 1, ptr noundef @.str.222)
  %19 = load ptr, ptr %2, align 8, !tbaa !9
  %20 = call i32 (ptr, i32, ptr, ...) @__fprintf_chk(ptr noundef %19, i32 noundef 1, ptr noundef @.str.223)
  %21 = load ptr, ptr %2, align 8, !tbaa !9
  %22 = call i32 (ptr, i32, ptr, ...) @__fprintf_chk(ptr noundef %21, i32 noundef 1, ptr noundef @.str.224)
  %23 = load ptr, ptr %2, align 8, !tbaa !9
  %24 = call i32 (ptr, i32, ptr, ...) @__fprintf_chk(ptr noundef %23, i32 noundef 1, ptr noundef @.str.225)
  %25 = load ptr, ptr %2, align 8, !tbaa !9
  %26 = call i32 (ptr, i32, ptr, ...) @__fprintf_chk(ptr noundef %25, i32 noundef 1, ptr noundef @.str.226)
  %27 = load ptr, ptr %2, align 8, !tbaa !9
  %28 = call i32 (ptr, i32, ptr, ...) @__fprintf_chk(ptr noundef %27, i32 noundef 1, ptr noundef @.str.227)
  %29 = load ptr, ptr %2, align 8, !tbaa !9
  %30 = call i32 (ptr, i32, ptr, ...) @__fprintf_chk(ptr noundef %29, i32 noundef 1, ptr noundef @.str.228)
  %31 = load ptr, ptr %2, align 8, !tbaa !9
  %32 = call i32 (ptr, i32, ptr, ...) @__fprintf_chk(ptr noundef %31, i32 noundef 1, ptr noundef @.str.229)
  %33 = load ptr, ptr %2, align 8, !tbaa !9
  %34 = call i32 (ptr, i32, ptr, ...) @__fprintf_chk(ptr noundef %33, i32 noundef 1, ptr noundef @.str.230)
  %35 = load ptr, ptr %2, align 8, !tbaa !9
  %36 = call i32 (ptr, i32, ptr, ...) @__fprintf_chk(ptr noundef %35, i32 noundef 1, ptr noundef @.str.231)
  %37 = load ptr, ptr %2, align 8, !tbaa !9
  %38 = call i32 (ptr, i32, ptr, ...) @__fprintf_chk(ptr noundef %37, i32 noundef 1, ptr noundef @.str.232)
  %39 = load ptr, ptr %2, align 8, !tbaa !9
  %40 = call i32 (ptr, i32, ptr, ...) @__fprintf_chk(ptr noundef %39, i32 noundef 1, ptr noundef @.str.233)
  %41 = load ptr, ptr %2, align 8, !tbaa !9
  %42 = call i32 (ptr, i32, ptr, ...) @__fprintf_chk(ptr noundef %41, i32 noundef 1, ptr noundef @.str.234)
  %43 = load ptr, ptr %2, align 8, !tbaa !9
  %44 = call i32 (ptr, i32, ptr, ...) @__fprintf_chk(ptr noundef %43, i32 noundef 1, ptr noundef @.str.235)
  %45 = load ptr, ptr %2, align 8, !tbaa !9
  %46 = call i32 (ptr, i32, ptr, ...) @__fprintf_chk(ptr noundef %45, i32 noundef 1, ptr noundef @.str.236)
  %47 = load ptr, ptr %2, align 8, !tbaa !9
  %48 = call i32 (ptr, i32, ptr, ...) @__fprintf_chk(ptr noundef %47, i32 noundef 1, ptr noundef @.str.237)
  %49 = load ptr, ptr %2, align 8, !tbaa !9
  %50 = call i32 (ptr, i32, ptr, ...) @__fprintf_chk(ptr noundef %49, i32 noundef 1, ptr noundef @.str.238)
  ret void
}