; Function Attrs: nounwind sspstrong uwtable
define internal fastcc void @usage_summary(ptr noundef %0) unnamed_addr #0 {
  %2 = tail call i32 (ptr, i32, ptr, ...) @__fprintf_chk(ptr noundef %0, i32 noundef 1, ptr noundef nonnull @.str.217) #4
  %3 = tail call i32 (ptr, i32, ptr, ...) @__fprintf_chk(ptr noundef %0, i32 noundef 1, ptr noundef nonnull @.str.218) #4
  %4 = tail call i32 (ptr, i32, ptr, ...) @__fprintf_chk(ptr noundef %0, i32 noundef 1, ptr noundef nonnull @.str) #4
  %5 = tail call i32 (ptr, i32, ptr, ...) @__fprintf_chk(ptr noundef %0, i32 noundef 1, ptr noundef nonnull @.str.219) #4
  %6 = tail call i32 (ptr, i32, ptr, ...) @__fprintf_chk(ptr noundef %0, i32 noundef 1, ptr noundef nonnull @.str.220) #4
  %7 = tail call i32 (ptr, i32, ptr, ...) @__fprintf_chk(ptr noundef %0, i32 noundef 1, ptr noundef nonnull @.str) #4
  %8 = tail call i32 (ptr, i32, ptr, ...) @__fprintf_chk(ptr noundef %0, i32 noundef 1, ptr noundef nonnull @.str.221) #4
  %9 = tail call i32 (ptr, i32, ptr, ...) @__fprintf_chk(ptr noundef %0, i32 noundef 1, ptr noundef nonnull @.str.222) #4
  %10 = tail call i32 (ptr, i32, ptr, ...) @__fprintf_chk(ptr noundef %0, i32 noundef 1, ptr noundef nonnull @.str.223) #4
  %11 = tail call i32 (ptr, i32, ptr, ...) @__fprintf_chk(ptr noundef %0, i32 noundef 1, ptr noundef nonnull @.str.224) #4
  %12 = tail call i32 (ptr, i32, ptr, ...) @__fprintf_chk(ptr noundef %0, i32 noundef 1, ptr noundef nonnull @.str.225) #4
  %13 = tail call i32 (ptr, i32, ptr, ...) @__fprintf_chk(ptr noundef %0, i32 noundef 1, ptr noundef nonnull @.str.226) #4
  %14 = tail call i32 (ptr, i32, ptr, ...) @__fprintf_chk(ptr noundef %0, i32 noundef 1, ptr noundef nonnull @.str.227) #4
  %15 = tail call i32 (ptr, i32, ptr, ...) @__fprintf_chk(ptr noundef %0, i32 noundef 1, ptr noundef nonnull @.str.228) #4
  %16 = tail call i32 (ptr, i32, ptr, ...) @__fprintf_chk(ptr noundef %0, i32 noundef 1, ptr noundef nonnull @.str.229) #4
  %17 = tail call i32 (ptr, i32, ptr, ...) @__fprintf_chk(ptr noundef %0, i32 noundef 1, ptr noundef nonnull @.str.230) #4
  %18 = tail call i32 (ptr, i32, ptr, ...) @__fprintf_chk(ptr noundef %0, i32 noundef 1, ptr noundef nonnull @.str.231) #4
  %19 = tail call i32 (ptr, i32, ptr, ...) @__fprintf_chk(ptr noundef %0, i32 noundef 1, ptr noundef nonnull @.str.232) #4
  %20 = tail call i32 (ptr, i32, ptr, ...) @__fprintf_chk(ptr noundef %0, i32 noundef 1, ptr noundef nonnull @.str.233) #4
  %21 = tail call i32 (ptr, i32, ptr, ...) @__fprintf_chk(ptr noundef %0, i32 noundef 1, ptr noundef nonnull @.str.234) #4
  %22 = tail call i32 (ptr, i32, ptr, ...) @__fprintf_chk(ptr noundef %0, i32 noundef 1, ptr noundef nonnull @.str.235) #4
  %23 = tail call i32 (ptr, i32, ptr, ...) @__fprintf_chk(ptr noundef %0, i32 noundef 1, ptr noundef nonnull @.str.236) #4
  %24 = tail call i32 (ptr, i32, ptr, ...) @__fprintf_chk(ptr noundef %0, i32 noundef 1, ptr noundef nonnull @.str.237) #4
  %25 = tail call i32 (ptr, i32, ptr, ...) @__fprintf_chk(ptr noundef %0, i32 noundef 1, ptr noundef nonnull @.str.238) #4
  ret void
}